; Function Attrs: nounwind uwtable
define internal fastcc void @w_short(i32 noundef range(i32 0, 32768) %0, ptr noundef nonnull %1) unnamed_addr #0 {
  %3 = getelementptr inbounds nuw i8, ptr %1, i64 24
  %4 = load ptr, ptr %3, align 8, !tbaa !15
  %5 = getelementptr inbounds nuw i8, ptr %1, i64 32
  %6 = load ptr, ptr %5, align 8, !tbaa !16
  %.not = icmp eq ptr %4, %6
  br i1 %.not, label %7, label %42

7:                                                ; preds = %2
  %8 = icmp eq ptr %4, null
  br i1 %8, label %w_reserve.exit17.thread, label %9

9:                                                ; preds = %7
  %10 = load ptr, ptr %1, align 8, !tbaa !4
  %.not.i = icmp eq ptr %10, null
  %11 = getelementptr inbounds nuw i8, ptr %1, i64 40
  %12 = load ptr, ptr %11, align 8, !tbaa !14
  %13 = ptrtoint ptr %4 to i64
  %14 = ptrtoint ptr %12 to i64
  %15 = sub i64 %13, %14
  br i1 %.not.i, label %16, label %w_reserve.exit

16:                                               ; preds = %9
  %17 = getelementptr inbounds nuw i8, ptr %1, i64 16
  %18 = load ptr, ptr %17, align 8, !tbaa !18
  %19 = getelementptr i8, ptr %18, i64 16
  %.val.i = load i64, ptr %19, align 8, !tbaa !19
  %20 = icmp sgt i64 %.val.i, 16777216
  %21 = lshr i64 %.val.i, 3
  %22 = add nsw i64 %.val.i, 1024
  %.0.i = select i1 %20, i64 %21, i64 %22
  %23 = tail call i64 @llvm.smax.i64(i64 %.0.i, i64 1)
  %24 = sub i64 9223372036854775807, %.val.i
  %25 = icmp sgt i64 %23, %24
  br i1 %25, label %w_reserve.exit.thread.thread.thread32, label %27

w_reserve.exit.thread.thread.thread32:            ; preds = %16
  %26 = getelementptr inbounds nuw i8, ptr %1, i64 8
  store i32 3, ptr %26, align 8, !tbaa !24
  br label %49

27:                                               ; preds = %16
  %28 = add i64 %23, %.val.i
  %29 = tail call i32 @_PyBytes_Resize(ptr noundef nonnull %17, i64 noundef %28) #11
  %.not38.i = icmp eq i32 %29, 0
  br i1 %.not38.i, label %w_reserve.exit.thread20, label %30

30:                                               ; preds = %27
  tail call void @llvm.memset.p0.i64(ptr noundef nonnull align 8 dereferenceable(24) %3, i8 0, i64 24, i1 false)
  br label %w_reserve.exit17.thread

w_reserve.exit.thread20:                          ; preds = %27
  %31 = load ptr, ptr %17, align 8, !tbaa !18
  %32 = getelementptr inbounds nuw i8, ptr %31, i64 32
  store ptr %32, ptr %11, align 8, !tbaa !14
  %33 = getelementptr i8, ptr %32, i64 %15
  %34 = getelementptr i8, ptr %32, i64 %28
  store ptr %34, ptr %5, align 8, !tbaa !16
  br label %42

w_reserve.exit:                                   ; preds = %9
  %35 = tail call i64 @fwrite(ptr noundef %12, i64 noundef 1, i64 noundef %15, ptr noundef nonnull %10)
  %36 = load ptr, ptr %11, align 8, !tbaa !14
  store ptr %36, ptr %3, align 8, !tbaa !15
  %37 = load ptr, ptr %5, align 8, !tbaa !16
  %38 = ptrtoint ptr %37 to i64
  %39 = ptrtoint ptr %36 to i64
  %40 = sub i64 %38, %39
  %41 = icmp slt i64 %40, 1
  br i1 %41, label %w_reserve.exit.thread, label %42

42:                                               ; preds = %w_reserve.exit.thread20, %w_reserve.exit, %2
  %43 = phi ptr [ %33, %w_reserve.exit.thread20 ], [ %36, %w_reserve.exit ], [ %4, %2 ]
  %44 = trunc i32 %0 to i8
  %45 = getelementptr i8, ptr %43, i64 1
  store ptr %45, ptr %3, align 8, !tbaa !15
  store i8 %44, ptr %43, align 1, !tbaa !25
  %.pr.pre = load ptr, ptr %3, align 8, !tbaa !15
  %.pre.pre = load ptr, ptr %5, align 8, !tbaa !16
  br label %w_reserve.exit.thread

w_reserve.exit.thread:                            ; preds = %42, %w_reserve.exit
  %46 = phi ptr [ %37, %w_reserve.exit ], [ %.pre.pre, %42 ]
  %47 = phi ptr [ %36, %w_reserve.exit ], [ %.pr.pre, %42 ]
  %.not10 = icmp eq ptr %47, %46
  br i1 %.not10, label %w_reserve.exit.thread.thread, label %84

w_reserve.exit.thread.thread:                     ; preds = %w_reserve.exit.thread
  %48 = icmp eq ptr %46, null
  br i1 %48, label %w_reserve.exit17.thread, label %49

49:                                               ; preds = %w_reserve.exit.thread.thread.thread32, %w_reserve.exit.thread.thread
  %50 = phi ptr [ %4, %w_reserve.exit.thread.thread.thread32 ], [ %46, %w_reserve.exit.thread.thread ]
  %51 = load ptr, ptr %1, align 8, !tbaa !4
  %.not.i12 = icmp eq ptr %51, null
  %52 = getelementptr inbounds nuw i8, ptr %1, i64 40
  %53 = load ptr, ptr %52, align 8, !tbaa !14
  %54 = ptrtoint ptr %50 to i64
  %55 = ptrtoint ptr %53 to i64
  %56 = sub i64 %54, %55
  br i1 %.not.i12, label %57, label %w_reserve.exit17

57:                                               ; preds = %49
  %58 = getelementptr inbounds nuw i8, ptr %1, i64 16
  %59 = load ptr, ptr %58, align 8, !tbaa !18
  %60 = getelementptr i8, ptr %59, i64 16
  %.val.i14 = load i64, ptr %60, align 8, !tbaa !19
  %61 = icmp sgt i64 %.val.i14, 16777216
  %62 = lshr i64 %.val.i14, 3
  %63 = add nsw i64 %.val.i14, 1024
  %.0.i15 = select i1 %61, i64 %62, i64 %63
  %64 = tail call i64 @llvm.smax.i64(i64 %.0.i15, i64 1)
  %65 = sub i64 9223372036854775807, %.val.i14
  %66 = icmp sgt i64 %64, %65
  br i1 %66, label %67, label %69

67:                                               ; preds = %57
  %68 = getelementptr inbounds nuw i8, ptr %1, i64 8
  store i32 3, ptr %68, align 8, !tbaa !24
  br label %w_reserve.exit17.thread

69:                                               ; preds = %57
  %70 = add i64 %64, %.val.i14
  %71 = tail call i32 @_PyBytes_Resize(ptr noundef nonnull %58, i64 noundef %70) #11
  %.not38.i16 = icmp eq i32 %71, 0
  br i1 %.not38.i16, label %w_reserve.exit17.thread25, label %72

72:                                               ; preds = %69
  tail call void @llvm.memset.p0.i64(ptr noundef nonnull align 8 dereferenceable(24) %3, i8 0, i64 24, i1 false)
  br label %w_reserve.exit17.thread

w_reserve.exit17.thread25:                        ; preds = %69
  %73 = load ptr, ptr %58, align 8, !tbaa !18
  %74 = getelementptr inbounds nuw i8, ptr %73, i64 32
  store ptr %74, ptr %52, align 8, !tbaa !14
  %75 = getelementptr i8, ptr %74, i64 %56
  %76 = getelementptr i8, ptr %74, i64 %70
  store ptr %76, ptr %5, align 8, !tbaa !16
  br label %84

w_reserve.exit17:                                 ; preds = %49
  %77 = tail call i64 @fwrite(ptr noundef %53, i64 noundef 1, i64 noundef %56, ptr noundef nonnull %51)
  %78 = load ptr, ptr %52, align 8, !tbaa !14
  store ptr %78, ptr %3, align 8, !tbaa !15
  %79 = load ptr, ptr %5, align 8, !tbaa !16
  %80 = ptrtoint ptr %79 to i64
  %81 = ptrtoint ptr %78 to i64
  %82 = sub i64 %80, %81
  %83 = icmp slt i64 %82, 1
  br i1 %83, label %w_reserve.exit17.thread, label %84

84:                                               ; preds = %w_reserve.exit17.thread25, %w_reserve.exit17, %w_reserve.exit.thread
  %85 = phi ptr [ %75, %w_reserve.exit17.thread25 ], [ %78, %w_reserve.exit17 ], [ %47, %w_reserve.exit.thread ]
  %86 = lshr i32 %0, 8
  %87 = trunc nuw nsw i32 %86 to i8
  %88 = getelementptr i8, ptr %85, i64 1
  store ptr %88, ptr %3, align 8, !tbaa !15
  store i8 %87, ptr %85, align 1, !tbaa !25
  br label %w_reserve.exit17.thread

w_reserve.exit17.thread:                          ; preds = %30, %7, %w_reserve.exit.thread.thread, %72, %67, %w_reserve.exit17, %84
  ret void
}